target datalayout = "e-m:e-p270:32:32-p271:32:32-p272:64:64-i64:64-i128:128-f80:128-n8:16:32:64-S128"
target triple = "x86_64-pc-linux-gnu"

%struct.slurm_cred_t = type { i32, %union.pthread_rwlock_t, ptr, i32, i16, ptr, i64, ptr, i8 }
%union.pthread_rwlock_t = type { %struct.__pthread_rwlock_arch_t }
%struct.__pthread_rwlock_arch_t = type { i32, i32, i32, i32, i32, i32, i32, i32, i8, [7 x i8], i64, i32 }

@cred_expire = internal global i32 120, align 4
@.str.17 = private unnamed_addr constant [32 x i8] c"%s: pthread_rwlock_unlock(): %m\00", align 1
@.str.18 = private unnamed_addr constant [32 x i8] c"%s: pthread_rwlock_rdlock(): %m\00", align 1
@__func__.slurm_cred_verify = private unnamed_addr constant [18 x i8] c"slurm_cred_verify\00", align 1

; Function Attrs: nounwind uwtable
define dso_local ptr @slurm_cred_verify(ptr noundef %0) #0 {
  %2 = alloca ptr, align 8
  %3 = alloca ptr, align 8
  %4 = alloca i64, align 8
  %5 = alloca i32, align 4
  %6 = alloca i32, align 4
  %7 = alloca i32, align 4
  %8 = alloca i32, align 4
  store ptr %0, ptr %3, align 8
  call void @llvm.lifetime.start.p0(i64 8, ptr %4) #9
  %9 = call i64 @time(ptr noundef null) #9
  store i64 %9, ptr %4, align 8
  call void @llvm.lifetime.start.p0(i64 4, ptr %5) #9
  br label %10

10:                                               ; preds = %1
  call void @llvm.lifetime.start.p0(i64 4, ptr %6) #9
  %11 = load ptr, ptr %3, align 8
  %12 = getelementptr inbounds nuw %struct.slurm_cred_t, ptr %11, i32 0, i32 1
  %13 = call i32 @pthread_rwlock_rdlock(ptr noundef %12) #9
  store i32 %13, ptr %6, align 4
  %14 = load i32, ptr %6, align 4
  %15 = icmp ne i32 %14, 0
  br i1 %15, label %16, label %19

16:                                               ; preds = %10
  %17 = load i32, ptr %6, align 4
  %18 = call ptr @__errno_location() #11
  store i32 %17, ptr %18, align 4
  call void (ptr, ...) @fatal_abort(ptr noundef @.str.18, ptr noundef @__func__.slurm_cred_verify) #12
  unreachable

19:                                               ; preds = %10
  call void @llvm.lifetime.end.p0(i64 4, ptr %6) #9
  br label %20

20:                                               ; preds = %19
  br label %21

21:                                               ; preds = %20
  %22 = load ptr, ptr %3, align 8
  %23 = getelementptr inbounds nuw %struct.slurm_cred_t, ptr %22, i32 0, i32 8
  %24 = load i8, ptr %23, align 8, !range !11, !noundef !12
  %25 = trunc i8 %24 to i1
  br i1 %25, label %28, label %26

26:                                               ; preds = %21
  %27 = call ptr @__errno_location() #11
  store i32 4004, ptr %27, align 4
  br label %43

28:                                               ; preds = %21
  %29 = load i64, ptr %4, align 8
  %30 = load ptr, ptr %3, align 8
  %31 = getelementptr inbounds nuw %struct.slurm_cred_t, ptr %30, i32 0, i32 6
  %32 = load i64, ptr %31, align 8
  %33 = load i32, ptr @cred_expire, align 4
  %34 = sext i32 %33 to i64
  %35 = add nsw i64 %32, %34
  %36 = icmp sgt i64 %29, %35
  br i1 %36, label %37, label %39

37:                                               ; preds = %28
  %38 = call ptr @__errno_location() #11
  store i32 4007, ptr %38, align 4
  br label %43

39:                                               ; preds = %28
  %40 = load ptr, ptr %3, align 8
  %41 = getelementptr inbounds nuw %struct.slurm_cred_t, ptr %40, i32 0, i32 5
  %42 = load ptr, ptr %41, align 8
  store ptr %42, ptr %2, align 8
  store i32 1, ptr %7, align 4
  br label %60

43:                                               ; preds = %37, %26
  %44 = call ptr @__errno_location() #11
  %45 = load i32, ptr %44, align 4
  store i32 %45, ptr %5, align 4
  br label %46

46:                                               ; preds = %43
  call void @llvm.lifetime.start.p0(i64 4, ptr %8) #9
  %47 = load ptr, ptr %3, align 8
  %48 = getelementptr inbounds nuw %struct.slurm_cred_t, ptr %47, i32 0, i32 1
  %49 = call i32 @pthread_rwlock_unlock(ptr noundef %48) #9
  store i32 %49, ptr %8, align 4
  %50 = load i32, ptr %8, align 4
  %51 = icmp ne i32 %50, 0
  br i1 %51, label %52, label %55

52:                                               ; preds = %46
  %53 = load i32, ptr %8, align 4
  %54 = call ptr @__errno_location() #11
  store i32 %53, ptr %54, align 4
  call void (ptr, ...) @fatal_abort(ptr noundef @.str.17, ptr noundef @__func__.slurm_cred_verify) #12
  unreachable

55:                                               ; preds = %46
  call void @llvm.lifetime.end.p0(i64 4, ptr %8) #9
  br label %56

56:                                               ; preds = %55
  br label %57

57:                                               ; preds = %56
  %58 = load i32, ptr %5, align 4
  %59 = call ptr @__errno_location() #11
  store i32 %58, ptr %59, align 4
  store ptr null, ptr %2, align 8
  store i32 1, ptr %7, align 4
  br label %60

60:                                               ; preds = %57, %39
  call void @llvm.lifetime.end.p0(i64 4, ptr %5) #9
  call void @llvm.lifetime.end.p0(i64 8, ptr %4) #9
  %61 = load ptr, ptr %2, align 8
  ret ptr %61
}