; Function Attrs: nounwind uwtable
define dso_local ptr @slurm_cred_verify(ptr noundef %0) local_unnamed_addr #0 {
  %2 = tail call i64 @time(ptr noundef null) #11
  %3 = getelementptr inbounds nuw i8, ptr %0, i64 8
  %4 = tail call i32 @pthread_rwlock_rdlock(ptr noundef nonnull %3) #11
  %.not = icmp eq i32 %4, 0
  br i1 %.not, label %7, label %5

5:                                                ; preds = %1
  %6 = tail call ptr @__errno_location() #12
  store i32 %4, ptr %6, align 4
  tail call void (ptr, ...) @fatal_abort(ptr noundef nonnull @.str.18, ptr noundef nonnull @__func__.slurm_cred_verify) #13
  unreachable

7:                                                ; preds = %1
  %8 = getelementptr inbounds nuw i8, ptr %0, i64 104
  %9 = load i8, ptr %8, align 8, !range !11, !noundef !12
  %10 = trunc nuw i8 %9 to i1
  br i1 %10, label %11, label %21

11:                                               ; preds = %7
  %12 = getelementptr inbounds nuw i8, ptr %0, i64 88
  %13 = load i64, ptr %12, align 8
  %14 = load i32, ptr @cred_expire, align 4
  %15 = sext i32 %14 to i64
  %16 = add nsw i64 %13, %15
  %17 = icmp sgt i64 %2, %16
  br i1 %17, label %21, label %18

18:                                               ; preds = %11
  %19 = getelementptr inbounds nuw i8, ptr %0, i64 80
  %20 = load ptr, ptr %19, align 8
  br label %26

21:                                               ; preds = %11, %7
  %.sink = phi i32 [ 4004, %7 ], [ 4007, %11 ]
  %22 = tail call ptr @__errno_location() #12
  store i32 %.sink, ptr %22, align 4
  %23 = tail call i32 @pthread_rwlock_unlock(ptr noundef nonnull %3) #11
  %.not13 = icmp eq i32 %23, 0
  br i1 %.not13, label %25, label %24

24:                                               ; preds = %21
  store i32 %23, ptr %22, align 4
  tail call void (ptr, ...) @fatal_abort(ptr noundef nonnull @.str.17, ptr noundef nonnull @__func__.slurm_cred_verify) #13
  unreachable

25:                                               ; preds = %21
  store i32 %.sink, ptr %22, align 4
  br label %26

26:                                               ; preds = %25, %18
  %.0 = phi ptr [ null, %25 ], [ %20, %18 ]
  ret ptr %.0
}